target datalayout = "e-m:e-p270:32:32-p271:32:32-p272:64:64-i64:64-i128:128-f80:128-n8:16:32:64-S128"
target triple = "x86_64-pc-linux-gnu"

%"class.grpc_core::CallCombiner" = type { i64, %"class.grpc_core::MultiProducerSingleConsumerQueue", i64 }
%"class.grpc_core::MultiProducerSingleConsumerQueue" = type { %union.anon, ptr, %"struct.grpc_core::MultiProducerSingleConsumerQueue::Node" }
%union.anon = type { %"struct.std::atomic", [56 x i8] }
%"struct.std::atomic" = type { %"struct.std::__atomic_base" }
%"struct.std::__atomic_base" = type { ptr }
%"struct.grpc_core::MultiProducerSingleConsumerQueue::Node" = type { %"struct.std::atomic" }

; Function Attrs: mustprogress nounwind uwtable
define linkonce_odr void @_ZNSt13__atomic_baseIPN9grpc_core32MultiProducerSingleConsumerQueue4NodeEEC2ES3_(ptr noundef nonnull align 8 dereferenceable(8) %0, ptr noundef %1) unnamed_addr #5 comdat align 2 {
  %3 = alloca ptr, align 8
  %4 = alloca ptr, align 8
  store ptr %0, ptr %3, align 8, !tbaa !57
  store ptr %1, ptr %4, align 8, !tbaa !56
  %5 = load ptr, ptr %3, align 8
  %6 = getelementptr inbounds nuw %"struct.std::__atomic_base", ptr %5, i32 0, i32 0
  %7 = load ptr, ptr %4, align 8, !tbaa !56
  store ptr %7, ptr %6, align 8, !tbaa !59
  ret void
}

; Function Attrs: inlinehint mustprogress nounwind uwtable
define linkonce_odr void @_ZN9grpc_core32MultiProducerSingleConsumerQueue4NodeC2Ev(ptr noundef nonnull align 8 dereferenceable(8) %0) unnamed_addr #9 comdat align 2 {
  %2 = alloca ptr, align 8
  store ptr %0, ptr %2, align 8, !tbaa !56
  %3 = load ptr, ptr %2, align 8
  %4 = getelementptr inbounds nuw %"struct.grpc_core::MultiProducerSingleConsumerQueue::Node", ptr %3, i32 0, i32 0
  call void @_ZNSt6atomicIPN9grpc_core32MultiProducerSingleConsumerQueue4NodeEEC2ES3_(ptr noundef nonnull align 8 dereferenceable(8) %4, ptr noundef null) #3
  ret void
}

; Function Attrs: mustprogress nounwind uwtable
define linkonce_odr void @_ZNSt6atomicIPN9grpc_core32MultiProducerSingleConsumerQueue4NodeEEC2ES3_(ptr noundef nonnull align 8 dereferenceable(8) %0, ptr noundef %1) unnamed_addr #5 comdat align 2 {
  %3 = alloca ptr, align 8
  %4 = alloca ptr, align 8
  store ptr %0, ptr %3, align 8, !tbaa !54
  store ptr %1, ptr %4, align 8, !tbaa !56
  %5 = load ptr, ptr %3, align 8
  %6 = getelementptr inbounds nuw %"struct.std::atomic", ptr %5, i32 0, i32 0
  %7 = load ptr, ptr %4, align 8, !tbaa !56
  call void @_ZNSt13__atomic_baseIPN9grpc_core32MultiProducerSingleConsumerQueue4NodeEEC2ES3_(ptr noundef nonnull align 8 dereferenceable(8) %6, ptr noundef %7) #3
  ret void
}

; Function Attrs: mustprogress nounwind uwtable
define linkonce_odr void @_ZN9grpc_core32MultiProducerSingleConsumerQueueC2Ev(ptr noundef nonnull align 8 dereferenceable(80) %0) unnamed_addr #5 comdat align 2 {
  %2 = alloca ptr, align 8
  store ptr %0, ptr %2, align 8, !tbaa !18
  %3 = load ptr, ptr %2, align 8
  %4 = getelementptr inbounds nuw %"class.grpc_core::MultiProducerSingleConsumerQueue", ptr %3, i32 0, i32 0
  %5 = getelementptr inbounds nuw %"class.grpc_core::MultiProducerSingleConsumerQueue", ptr %3, i32 0, i32 2
  call void @_ZNSt6atomicIPN9grpc_core32MultiProducerSingleConsumerQueue4NodeEEC2ES3_(ptr noundef nonnull align 8 dereferenceable(8) %4, ptr noundef %5) #3
  %6 = getelementptr inbounds nuw %"class.grpc_core::MultiProducerSingleConsumerQueue", ptr %3, i32 0, i32 1
  %7 = getelementptr inbounds nuw %"class.grpc_core::MultiProducerSingleConsumerQueue", ptr %3, i32 0, i32 2
  store ptr %7, ptr %6, align 8, !tbaa !20
  %8 = getelementptr inbounds nuw %"class.grpc_core::MultiProducerSingleConsumerQueue", ptr %3, i32 0, i32 2
  call void @_ZN9grpc_core32MultiProducerSingleConsumerQueue4NodeC2Ev(ptr noundef nonnull align 8 dereferenceable(8) %8) #3
  ret void
}

; Function Attrs: mustprogress uwtable
define void @_ZN9grpc_core12CallCombinerC2Ev(ptr noundef nonnull align 8 dereferenceable(96) %0) unnamed_addr #4 align 2 {
  %2 = alloca ptr, align 8
  %3 = alloca i64, align 8
  %4 = alloca i64, align 8
  store ptr %0, ptr %2, align 8, !tbaa !3
  %5 = load ptr, ptr %2, align 8
  %6 = getelementptr inbounds nuw %"class.grpc_core::CallCombiner", ptr %5, i32 0, i32 0
  store i64 0, ptr %6, align 8, !tbaa !8
  %7 = getelementptr inbounds nuw %"class.grpc_core::CallCombiner", ptr %5, i32 0, i32 1
  call void @_ZN9grpc_core32MultiProducerSingleConsumerQueueC2Ev(ptr noundef nonnull align 8 dereferenceable(80) %7)
  %8 = getelementptr inbounds nuw %"class.grpc_core::CallCombiner", ptr %5, i32 0, i32 2
  store i64 0, ptr %8, align 8, !tbaa !16
  %9 = getelementptr inbounds nuw %"class.grpc_core::CallCombiner", ptr %5, i32 0, i32 2
  store i64 0, ptr %3, align 8, !tbaa !17
  %10 = load i64, ptr %3, align 8
  store atomic i64 %10, ptr %9 monotonic, align 8
  %11 = getelementptr inbounds nuw %"class.grpc_core::CallCombiner", ptr %5, i32 0, i32 0
  store i64 0, ptr %4, align 8, !tbaa !17
  %12 = load i64, ptr %4, align 8
  store atomic i64 %12, ptr %11 monotonic, align 8
  ret void
}